; Function Attrs: nounwind uwtable
define internal ptr @lu_uint(ptr readnone captures(none) %0, ptr noundef readonly captures(none) %1, ptr noundef readonly captures(none) %2) #0 {
  %4 = getelementptr inbounds nuw i8, ptr %2, i64 8
  %5 = load i64, ptr %4, align 8, !tbaa !67
  br label %6

6:                                                ; preds = %6, %3
  %.06 = phi i64 [ %5, %3 ], [ %8, %6 ]
  %.0 = phi i64 [ 0, %3 ], [ %12, %6 ]
  %7 = shl i64 %.0, 8
  %8 = add i64 %.06, -1
  %9 = getelementptr i8, ptr %1, i64 %8
  %10 = load i8, ptr %9, align 1, !tbaa !18
  %11 = zext i8 %10 to i64
  %12 = or disjoint i64 %7, %11
  %13 = icmp sgt i64 %8, 0
  br i1 %13, label %6, label %14, !llvm.loop !93

14:                                               ; preds = %6
  %15 = tail call ptr @PyLong_FromUnsignedLong(i64 noundef %12) #7
  ret ptr %15
}